target datalayout = "e-m:e-p270:32:32-p271:32:32-p272:64:64-i64:64-i128:128-f80:128-n8:16:32:64-S128"
target triple = "x86_64-pc-linux-gnu"

%struct.timespec = type { i64, i64 }
%struct.QEMUIOVector = type { ptr, i32, %union.anon }
%union.anon = type { %struct.anon }
%struct.anon = type { i32, %struct.iovec }
%struct.iovec = type { ptr, i64 }
%struct.anon.0 = type { [12 x i8], i64 }
%struct.aio_ctx = type { ptr, %struct.QEMUIOVector, i64, ptr, i8, i8, i8, i8, i8, %struct.BlockAcctCookie, i32, i32, %struct.timespec }
%struct.BlockAcctCookie = type { i64, i64, i32 }

@qemuio_misalign = dso_local global i8 0, align 1
@.str.18 = private unnamed_addr constant [5 x i8] c"read\00", align 1
@.str.59 = private unnamed_addr constant [18 x i8] c"readv failed: %s\0A\00", align 1
@.str.60 = private unnamed_addr constant [54 x i8] c"Pattern verification failed at offset %ld, %zu bytes\0A\00", align 1

; Function Attrs: nounwind sspstrong uwtable
define internal void @qemu_io_free(ptr noundef %0, ptr noundef %1, i64 noundef %2, i1 noundef zeroext %3) #0 {
  %5 = alloca ptr, align 8
  %6 = alloca ptr, align 8
  %7 = alloca i64, align 8
  %8 = alloca i8, align 1
  store ptr %0, ptr %5, align 8
  store ptr %1, ptr %6, align 8
  store i64 %2, ptr %7, align 8
  %9 = zext i1 %3 to i8
  store i8 %9, ptr %8, align 1
  %10 = load i8, ptr @qemuio_misalign, align 1, !range !11, !noundef !12
  %11 = trunc i8 %10 to i1
  br i1 %11, label %12, label %17

12:                                               ; preds = %4
  %13 = load ptr, ptr %6, align 8
  %14 = getelementptr inbounds i8, ptr %13, i64 -16
  store ptr %14, ptr %6, align 8
  %15 = load i64, ptr %7, align 8
  %16 = add i64 %15, 16
  store i64 %16, ptr %7, align 8
  br label %17

17:                                               ; preds = %12, %4
  %18 = load i8, ptr %8, align 1, !range !11, !noundef !12
  %19 = trunc i8 %18 to i1
  br i1 %19, label %20, label %24

20:                                               ; preds = %17
  %21 = load ptr, ptr %5, align 8
  %22 = load ptr, ptr %6, align 8
  %23 = load i64, ptr %7, align 8
  call void @blk_unregister_buf(ptr noundef %21, ptr noundef %22, i64 noundef %23)
  br label %24

24:                                               ; preds = %20, %17
  %25 = load ptr, ptr %6, align 8
  call void @qemu_vfree(ptr noundef %25)
  ret void
}

; Function Attrs: nounwind sspstrong uwtable
define internal { i64, i64 } @tsub(i64 %0, i64 %1, i64 %2, i64 %3) #0 {
  %5 = alloca %struct.timespec, align 8
  %6 = alloca %struct.timespec, align 8
  %7 = alloca %struct.timespec, align 8
  %8 = getelementptr inbounds nuw { i64, i64 }, ptr %6, i32 0, i32 0
  store i64 %0, ptr %8, align 8
  %9 = getelementptr inbounds nuw { i64, i64 }, ptr %6, i32 0, i32 1
  store i64 %1, ptr %9, align 8
  %10 = getelementptr inbounds nuw { i64, i64 }, ptr %7, i32 0, i32 0
  store i64 %2, ptr %10, align 8
  %11 = getelementptr inbounds nuw { i64, i64 }, ptr %7, i32 0, i32 1
  store i64 %3, ptr %11, align 8
  %12 = getelementptr inbounds nuw %struct.timespec, ptr %7, i32 0, i32 1
  %13 = load i64, ptr %12, align 8
  %14 = getelementptr inbounds nuw %struct.timespec, ptr %6, i32 0, i32 1
  %15 = load i64, ptr %14, align 8
  %16 = sub i64 %15, %13
  store i64 %16, ptr %14, align 8
  %17 = getelementptr inbounds nuw %struct.timespec, ptr %6, i32 0, i32 1
  %18 = load i64, ptr %17, align 8
  %19 = icmp slt i64 %18, 0
  br i1 %19, label %20, label %27

20:                                               ; preds = %4
  %21 = getelementptr inbounds nuw %struct.timespec, ptr %6, i32 0, i32 1
  %22 = load i64, ptr %21, align 8
  %23 = add i64 %22, 1000000000
  store i64 %23, ptr %21, align 8
  %24 = getelementptr inbounds nuw %struct.timespec, ptr %6, i32 0, i32 0
  %25 = load i64, ptr %24, align 8
  %26 = add i64 %25, -1
  store i64 %26, ptr %24, align 8
  br label %27

27:                                               ; preds = %20, %4
  %28 = getelementptr inbounds nuw %struct.timespec, ptr %7, i32 0, i32 0
  %29 = load i64, ptr %28, align 8
  %30 = getelementptr inbounds nuw %struct.timespec, ptr %6, i32 0, i32 0
  %31 = load i64, ptr %30, align 8
  %32 = sub i64 %31, %29
  store i64 %32, ptr %30, align 8
  call void @llvm.memcpy.p0.p0.i64(ptr align 8 %5, ptr align 8 %6, i64 16, i1 false)
  %33 = load { i64, i64 }, ptr %5, align 8
  ret { i64, i64 } %33
}

; Function Attrs: alwaysinline nounwind
define internal ptr @memset.inline(ptr nonnull %0, i32 %1, i64 %2) #12 {
  %4 = alloca ptr, align 8
  %5 = alloca i32, align 4
  %6 = alloca i64, align 8
  store ptr %0, ptr %4, align 8
  store i32 %1, ptr %5, align 4
  store i64 %2, ptr %6, align 8
  %7 = load ptr, ptr %4, align 8
  %8 = load i32, ptr %5, align 4
  %9 = load i64, ptr %6, align 8
  %10 = load ptr, ptr %4, align 8
  %11 = call i64 @llvm.objectsize.i64.p0(ptr %10, i1 false, i1 true, i1 false)
  %12 = call ptr @__memset_chk(ptr noundef %7, i32 noundef %8, i64 noundef %9, i64 noundef %11) #18
  ret ptr %12
}

; Function Attrs: nounwind sspstrong uwtable
define internal void @aio_read_done(ptr noundef %0, i32 noundef %1) #0 {
  %3 = alloca ptr, align 8
  %4 = alloca i32, align 4
  %5 = alloca ptr, align 8
  %6 = alloca %struct.timespec, align 8
  %7 = alloca ptr, align 8
  %8 = alloca %struct.timespec, align 8
  store ptr %0, ptr %3, align 8
  store i32 %1, ptr %4, align 4
  call void @llvm.lifetime.start.p0(i64 8, ptr %5) #18
  %9 = load ptr, ptr %3, align 8
  store ptr %9, ptr %5, align 8
  call void @llvm.lifetime.start.p0(i64 16, ptr %6) #18
  call void @llvm.memset.p0.i64(ptr align 8 %6, i8 0, i64 16, i1 false), !annotation !4
  %10 = call i32 @clock_gettime(i32 noundef 1, ptr noundef %6) #18
  %11 = load i32, ptr %4, align 4
  %12 = icmp slt i32 %11, 0
  br i1 %12, label %13, label %24

13:                                               ; preds = %2
  %14 = load i32, ptr %4, align 4
  %15 = sub i32 0, %14
  %16 = call ptr @strerror(i32 noundef %15) #18
  %17 = call i32 (i32, ptr, ...) @__printf_chk(i32 noundef 1, ptr noundef @.str.59, ptr noundef %16)
  %18 = load ptr, ptr %5, align 8
  %19 = getelementptr inbounds nuw %struct.aio_ctx, ptr %18, i32 0, i32 0
  %20 = load ptr, ptr %19, align 8
  %21 = call ptr @blk_get_stats(ptr noundef %20)
  %22 = load ptr, ptr %5, align 8
  %23 = getelementptr inbounds nuw %struct.aio_ctx, ptr %22, i32 0, i32 9
  call void @block_acct_failed(ptr noundef %21, ptr noundef %23)
  br label %131

24:                                               ; preds = %2
  %25 = load ptr, ptr %5, align 8
  %26 = getelementptr inbounds nuw %struct.aio_ctx, ptr %25, i32 0, i32 7
  %27 = load i8, ptr %26, align 1, !range !11, !noundef !12
  %28 = trunc i8 %27 to i1
  br i1 %28, label %29, label %69

29:                                               ; preds = %24
  call void @llvm.lifetime.start.p0(i64 8, ptr %7) #18
  %30 = load ptr, ptr %5, align 8
  %31 = getelementptr inbounds nuw %struct.aio_ctx, ptr %30, i32 0, i32 1
  %32 = getelementptr inbounds nuw %struct.QEMUIOVector, ptr %31, i32 0, i32 2
  %33 = getelementptr inbounds nuw %struct.anon.0, ptr %32, i32 0, i32 1
  %34 = load i64, ptr %33, align 8
  %35 = call noalias ptr @g_malloc(i64 noundef %34) #20
  store ptr %35, ptr %7, align 8
  %36 = load ptr, ptr %7, align 8
  %37 = load ptr, ptr %5, align 8
  %38 = getelementptr inbounds nuw %struct.aio_ctx, ptr %37, i32 0, i32 10
  %39 = load i32, ptr %38, align 8
  %40 = load ptr, ptr %5, align 8
  %41 = getelementptr inbounds nuw %struct.aio_ctx, ptr %40, i32 0, i32 1
  %42 = getelementptr inbounds nuw %struct.QEMUIOVector, ptr %41, i32 0, i32 2
  %43 = getelementptr inbounds nuw %struct.anon.0, ptr %42, i32 0, i32 1
  %44 = load i64, ptr %43, align 8
  %45 = call ptr @memset.inline(ptr noundef %36, i32 noundef %39, i64 noundef %44) #18
  %46 = load ptr, ptr %5, align 8
  %47 = getelementptr inbounds nuw %struct.aio_ctx, ptr %46, i32 0, i32 3
  %48 = load ptr, ptr %47, align 8
  %49 = load ptr, ptr %7, align 8
  %50 = load ptr, ptr %5, align 8
  %51 = getelementptr inbounds nuw %struct.aio_ctx, ptr %50, i32 0, i32 1
  %52 = getelementptr inbounds nuw %struct.QEMUIOVector, ptr %51, i32 0, i32 2
  %53 = getelementptr inbounds nuw %struct.anon.0, ptr %52, i32 0, i32 1
  %54 = load i64, ptr %53, align 8
  %55 = call i32 @memcmp(ptr noundef %48, ptr noundef %49, i64 noundef %54) #19
  %56 = icmp ne i32 %55, 0
  br i1 %56, label %57, label %67

57:                                               ; preds = %29
  %58 = load ptr, ptr %5, align 8
  %59 = getelementptr inbounds nuw %struct.aio_ctx, ptr %58, i32 0, i32 2
  %60 = load i64, ptr %59, align 8
  %61 = load ptr, ptr %5, align 8
  %62 = getelementptr inbounds nuw %struct.aio_ctx, ptr %61, i32 0, i32 1
  %63 = getelementptr inbounds nuw %struct.QEMUIOVector, ptr %62, i32 0, i32 2
  %64 = getelementptr inbounds nuw %struct.anon.0, ptr %63, i32 0, i32 1
  %65 = load i64, ptr %64, align 8
  %66 = call i32 (i32, ptr, ...) @__printf_chk(i32 noundef 1, ptr noundef @.str.60, i64 noundef %60, i64 noundef %65)
  br label %67

67:                                               ; preds = %57, %29
  %68 = load ptr, ptr %7, align 8
  call void @g_free(ptr noundef %68)
  call void @llvm.lifetime.end.p0(i64 8, ptr %7) #18
  br label %69

69:                                               ; preds = %67, %24
  %70 = load ptr, ptr %5, align 8
  %71 = getelementptr inbounds nuw %struct.aio_ctx, ptr %70, i32 0, i32 0
  %72 = load ptr, ptr %71, align 8
  %73 = call ptr @blk_get_stats(ptr noundef %72)
  %74 = load ptr, ptr %5, align 8
  %75 = getelementptr inbounds nuw %struct.aio_ctx, ptr %74, i32 0, i32 9
  call void @block_acct_done(ptr noundef %73, ptr noundef %75)
  %76 = load ptr, ptr %5, align 8
  %77 = getelementptr inbounds nuw %struct.aio_ctx, ptr %76, i32 0, i32 4
  %78 = load i8, ptr %77, align 8, !range !11, !noundef !12
  %79 = trunc i8 %78 to i1
  br i1 %79, label %80, label %81

80:                                               ; preds = %69
  br label %131

81:                                               ; preds = %69
  %82 = load ptr, ptr %5, align 8
  %83 = getelementptr inbounds nuw %struct.aio_ctx, ptr %82, i32 0, i32 5
  %84 = load i8, ptr %83, align 1, !range !11, !noundef !12
  %85 = trunc i8 %84 to i1
  br i1 %85, label %86, label %98

86:                                               ; preds = %81
  %87 = load ptr, ptr %5, align 8
  %88 = getelementptr inbounds nuw %struct.aio_ctx, ptr %87, i32 0, i32 3
  %89 = load ptr, ptr %88, align 8
  %90 = load ptr, ptr %5, align 8
  %91 = getelementptr inbounds nuw %struct.aio_ctx, ptr %90, i32 0, i32 2
  %92 = load i64, ptr %91, align 8
  %93 = load ptr, ptr %5, align 8
  %94 = getelementptr inbounds nuw %struct.aio_ctx, ptr %93, i32 0, i32 1
  %95 = getelementptr inbounds nuw %struct.QEMUIOVector, ptr %94, i32 0, i32 2
  %96 = getelementptr inbounds nuw %struct.anon.0, ptr %95, i32 0, i32 1
  %97 = load i64, ptr %96, align 8
  call void @dump_buffer(ptr noundef %89, i64 noundef %92, i64 noundef %97)
  br label %98

98:                                               ; preds = %86, %81
  call void @llvm.lifetime.start.p0(i64 16, ptr %8) #18
  %99 = load ptr, ptr %5, align 8
  %100 = getelementptr inbounds nuw %struct.aio_ctx, ptr %99, i32 0, i32 12
  %101 = getelementptr inbounds nuw { i64, i64 }, ptr %6, i32 0, i32 0
  %102 = load i64, ptr %101, align 8
  %103 = getelementptr inbounds nuw { i64, i64 }, ptr %6, i32 0, i32 1
  %104 = load i64, ptr %103, align 8
  %105 = getelementptr inbounds nuw { i64, i64 }, ptr %100, i32 0, i32 0
  %106 = load i64, ptr %105, align 8
  %107 = getelementptr inbounds nuw { i64, i64 }, ptr %100, i32 0, i32 1
  %108 = load i64, ptr %107, align 8
  %109 = call { i64, i64 } @tsub(i64 %102, i64 %104, i64 %106, i64 %108)
  %110 = getelementptr inbounds nuw { i64, i64 }, ptr %8, i32 0, i32 0
  %111 = extractvalue { i64, i64 } %109, 0
  store i64 %111, ptr %110, align 8
  %112 = getelementptr inbounds nuw { i64, i64 }, ptr %8, i32 0, i32 1
  %113 = extractvalue { i64, i64 } %109, 1
  store i64 %113, ptr %112, align 8
  call void @llvm.memcpy.p0.p0.i64(ptr align 8 %6, ptr align 8 %8, i64 16, i1 false)
  call void @llvm.lifetime.end.p0(i64 16, ptr %8) #18
  %114 = load ptr, ptr %5, align 8
  %115 = getelementptr inbounds nuw %struct.aio_ctx, ptr %114, i32 0, i32 2
  %116 = load i64, ptr %115, align 8
  %117 = load ptr, ptr %5, align 8
  %118 = getelementptr inbounds nuw %struct.aio_ctx, ptr %117, i32 0, i32 1
  %119 = getelementptr inbounds nuw %struct.QEMUIOVector, ptr %118, i32 0, i32 2
  %120 = getelementptr inbounds nuw %struct.anon.0, ptr %119, i32 0, i32 1
  %121 = load i64, ptr %120, align 8
  %122 = load ptr, ptr %5, align 8
  %123 = getelementptr inbounds nuw %struct.aio_ctx, ptr %122, i32 0, i32 1
  %124 = getelementptr inbounds nuw %struct.QEMUIOVector, ptr %123, i32 0, i32 2
  %125 = getelementptr inbounds nuw %struct.anon.0, ptr %124, i32 0, i32 1
  %126 = load i64, ptr %125, align 8
  %127 = load ptr, ptr %5, align 8
  %128 = getelementptr inbounds nuw %struct.aio_ctx, ptr %127, i32 0, i32 6
  %129 = load i8, ptr %128, align 2, !range !11, !noundef !12
  %130 = trunc i8 %129 to i1
  call void @print_report(ptr noundef @.str.18, ptr noundef %6, i64 noundef %116, i64 noundef %121, i64 noundef %126, i32 noundef 1, i1 noundef zeroext %130)
  br label %131

131:                                              ; preds = %98, %80, %13
  %132 = load ptr, ptr %5, align 8
  %133 = getelementptr inbounds nuw %struct.aio_ctx, ptr %132, i32 0, i32 0
  %134 = load ptr, ptr %133, align 8
  %135 = load ptr, ptr %5, align 8
  %136 = getelementptr inbounds nuw %struct.aio_ctx, ptr %135, i32 0, i32 3
  %137 = load ptr, ptr %136, align 8
  %138 = load ptr, ptr %5, align 8
  %139 = getelementptr inbounds nuw %struct.aio_ctx, ptr %138, i32 0, i32 1
  %140 = getelementptr inbounds nuw %struct.QEMUIOVector, ptr %139, i32 0, i32 2
  %141 = getelementptr inbounds nuw %struct.anon.0, ptr %140, i32 0, i32 1
  %142 = load i64, ptr %141, align 8
  %143 = load ptr, ptr %5, align 8
  %144 = getelementptr inbounds nuw %struct.aio_ctx, ptr %143, i32 0, i32 11
  %145 = load i32, ptr %144, align 4
  %146 = and i32 %145, 8
  %147 = icmp ne i32 %146, 0
  call void @qemu_io_free(ptr noundef %134, ptr noundef %137, i64 noundef %142, i1 noundef zeroext %147)
  %148 = load ptr, ptr %5, align 8
  %149 = getelementptr inbounds nuw %struct.aio_ctx, ptr %148, i32 0, i32 1
  call void @qemu_iovec_destroy(ptr noundef %149)
  %150 = load ptr, ptr %5, align 8
  call void @g_free(ptr noundef %150)
  call void @llvm.lifetime.end.p0(i64 16, ptr %6) #18
  call void @llvm.lifetime.end.p0(i64 8, ptr %5) #18
  ret void
}