; Function Attrs: nounwind sspstrong uwtable
define internal void @aio_read_done(ptr noundef %0, i32 noundef %1) #0 {
  %3 = alloca %struct.timespec, align 8
  call void @llvm.lifetime.start.p0(i64 16, ptr nonnull %3) #26
  call void @llvm.memset.p0.i64(ptr noundef nonnull align 8 dereferenceable(16) %3, i8 0, i64 16, i1 false), !annotation !8
  %4 = call i32 @clock_gettime(i32 noundef 1, ptr noundef nonnull %3) #26
  %5 = icmp slt i32 %1, 0
  br i1 %5, label %6, label %13

6:                                                ; preds = %2
  %7 = sub i32 0, %1
  %8 = call ptr @strerror(i32 noundef %7) #26
  %9 = call i32 (i32, ptr, ...) @__printf_chk(i32 noundef 1, ptr noundef nonnull @.str.59, ptr noundef %8) #26
  %10 = load ptr, ptr %0, align 8
  %11 = call ptr @blk_get_stats(ptr noundef %10) #26
  %12 = getelementptr inbounds nuw i8, ptr %0, i64 72
  call void @block_acct_failed(ptr noundef %11, ptr noundef nonnull %12) #26
  br label %69

13:                                               ; preds = %2
  %14 = getelementptr inbounds nuw i8, ptr %0, i64 67
  %15 = load i8, ptr %14, align 1, !range !11, !noundef !12
  %16 = trunc nuw i8 %15 to i1
  br i1 %16, label %17, label %32

17:                                               ; preds = %13
  %18 = getelementptr inbounds nuw i8, ptr %0, i64 40
  %19 = load i64, ptr %18, align 8
  %20 = call noalias ptr @g_malloc(i64 noundef %19) #28
  %21 = getelementptr inbounds nuw i8, ptr %0, i64 96
  %22 = load i32, ptr %21, align 8
  %23 = load i64, ptr %18, align 8
  %24 = trunc i32 %22 to i8
  call void @llvm.memset.p0.i64(ptr noundef nonnull align 1 %20, i8 noundef %24, i64 noundef %23, i1 noundef false) #26
  %25 = getelementptr inbounds nuw i8, ptr %0, i64 56
  %26 = load ptr, ptr %25, align 8
  %bcmp = call i32 @bcmp(ptr %26, ptr nonnull %20, i64 %23)
  %.not = icmp eq i32 %bcmp, 0
  br i1 %.not, label %31, label %27

27:                                               ; preds = %17
  %28 = getelementptr inbounds nuw i8, ptr %0, i64 48
  %29 = load i64, ptr %28, align 8
  %30 = call i32 (i32, ptr, ...) @__printf_chk(i32 noundef 1, ptr noundef nonnull @.str.60, i64 noundef %29, i64 noundef %23) #26
  br label %31

31:                                               ; preds = %27, %17
  call void @g_free(ptr noundef nonnull %20) #26
  br label %32

32:                                               ; preds = %31, %13
  %33 = load ptr, ptr %0, align 8
  %34 = call ptr @blk_get_stats(ptr noundef %33) #26
  %35 = getelementptr inbounds nuw i8, ptr %0, i64 72
  call void @block_acct_done(ptr noundef %34, ptr noundef nonnull %35) #26
  %36 = getelementptr inbounds nuw i8, ptr %0, i64 64
  %37 = load i8, ptr %36, align 8, !range !11, !noundef !12
  %38 = trunc nuw i8 %37 to i1
  br i1 %38, label %69, label %39

39:                                               ; preds = %32
  %40 = getelementptr inbounds nuw i8, ptr %0, i64 65
  %41 = load i8, ptr %40, align 1, !range !11, !noundef !12
  %42 = trunc nuw i8 %41 to i1
  br i1 %42, label %43, label %50

43:                                               ; preds = %39
  %44 = getelementptr inbounds nuw i8, ptr %0, i64 56
  %45 = load ptr, ptr %44, align 8
  %46 = getelementptr inbounds nuw i8, ptr %0, i64 48
  %47 = load i64, ptr %46, align 8
  %48 = getelementptr inbounds nuw i8, ptr %0, i64 40
  %49 = load i64, ptr %48, align 8
  call fastcc void @dump_buffer(ptr noundef %45, i64 noundef %47, i64 noundef %49)
  br label %50

50:                                               ; preds = %43, %39
  %51 = getelementptr inbounds nuw i8, ptr %0, i64 104
  %52 = load i64, ptr %3, align 8
  %53 = getelementptr inbounds nuw i8, ptr %3, i64 8
  %54 = load i64, ptr %53, align 8
  %55 = load i64, ptr %51, align 8
  %56 = getelementptr inbounds nuw i8, ptr %0, i64 112
  %57 = load i64, ptr %56, align 8
  %58 = sub i64 %54, %57
  %59 = icmp slt i64 %58, 0
  %60 = add nsw i64 %58, 1000000000
  %.lobit.i = ashr i64 %58, 63
  %.sroa.6.0.i = select i1 %59, i64 %60, i64 %58
  %.sroa.01.0.i = sub i64 %52, %55
  %61 = add i64 %.sroa.01.0.i, %.lobit.i
  store i64 %61, ptr %3, align 8
  store i64 %.sroa.6.0.i, ptr %53, align 8
  %62 = getelementptr inbounds nuw i8, ptr %0, i64 48
  %63 = load i64, ptr %62, align 8
  %64 = getelementptr inbounds nuw i8, ptr %0, i64 40
  %65 = load i64, ptr %64, align 8
  %66 = getelementptr inbounds nuw i8, ptr %0, i64 66
  %67 = load i8, ptr %66, align 2, !range !11, !noundef !12
  %68 = trunc nuw i8 %67 to i1
  call fastcc void @print_report(ptr noundef nonnull @.str.18, ptr noundef %3, i64 noundef %63, i64 noundef %65, i64 noundef %65, i32 noundef 1, i1 noundef zeroext %68)
  br label %69

69:                                               ; preds = %32, %50, %6
  %70 = getelementptr inbounds nuw i8, ptr %0, i64 56
  %71 = load ptr, ptr %70, align 8
  %72 = getelementptr inbounds nuw i8, ptr %0, i64 100
  %73 = load i32, ptr %72, align 4
  %74 = and i32 %73, 8
  %.not33 = icmp eq i32 %74, 0
  %75 = load i8, ptr @qemuio_misalign, align 1, !range !11, !noundef !12
  %76 = trunc nuw i8 %75 to i1
  %.0.idx.i = select i1 %76, i64 -16, i64 0
  %.0.i = getelementptr inbounds i8, ptr %71, i64 %.0.idx.i
  br i1 %.not33, label %qemu_io_free.exit, label %77

77:                                               ; preds = %69
  %78 = getelementptr inbounds nuw i8, ptr %0, i64 40
  %79 = load i64, ptr %78, align 8
  %80 = load ptr, ptr %0, align 8
  %81 = add i64 %79, 16
  %.06.i = select i1 %76, i64 %81, i64 %79
  call void @blk_unregister_buf(ptr noundef %80, ptr noundef %.0.i, i64 noundef %.06.i) #26
  br label %qemu_io_free.exit

qemu_io_free.exit:                                ; preds = %69, %77
  %82 = getelementptr inbounds nuw i8, ptr %0, i64 8
  call void @qemu_vfree(ptr noundef %.0.i) #26
  call void @qemu_iovec_destroy(ptr noundef nonnull %82) #26
  call void @g_free(ptr noundef nonnull %0) #26
  call void @llvm.lifetime.end.p0(i64 16, ptr nonnull %3) #26
  ret void
}